target datalayout = "e-m:e-p270:32:32-p271:32:32-p272:64:64-i64:64-i128:128-f80:128-n8:16:32:64-S128"
target triple = "x86_64-pc-linux-gnu"

%struct.b2ShapeId = type { i32, i16, i16 }
%struct.b2Vec2 = type { float, float }
%struct.b2ChainShapeArray = type { ptr, i32, i32 }
%struct.b2ShapeArray = type { ptr, i32, i32 }
%struct.b2Filter = type { i64, i64, i32 }
%struct.b2Shape = type { i32, i32, i32, i32, i32, i32, float, float, float, float, float, i32, %struct.b2AABB, %struct.b2AABB, %struct.b2Vec2, i32, %struct.b2Filter, ptr, i32, %union.anon.0, i16, i8, i8, i8, i8 }
%struct.b2AABB = type { %struct.b2Vec2, %struct.b2Vec2 }
%union.anon.0 = type { %struct.b2Polygon }
%struct.b2Polygon = type { [8 x %struct.b2Vec2], [8 x %struct.b2Vec2], %struct.b2Vec2, float, i32 }
%struct.b2World = type { %struct.b2ArenaAllocator, %struct.b2BroadPhase, %struct.b2ConstraintGraph, %struct.b2IdPool, %struct.b2BodyArray, %struct.b2IdPool, %struct.b2SolverSetArray, %struct.b2IdPool, %struct.b2JointArray, %struct.b2IdPool, %struct.b2ContactArray, %struct.b2IdPool, %struct.b2IslandArray, %struct.b2IdPool, %struct.b2IdPool, %struct.b2ShapeArray, %struct.b2ChainShapeArray, %struct.b2SensorArray, %struct.b2TaskContextArray, %struct.b2SensorTaskContextArray, %struct.b2BodyMoveEventArray, %struct.b2SensorBeginTouchEventArray, %struct.b2ContactBeginTouchEventArray, [2 x %struct.b2SensorEndTouchEventArray], [2 x %struct.b2ContactEndTouchEventArray], i32, %struct.b2ContactHitEventArray, %struct.b2BitSet, %struct.b2BitSet, %struct.b2BitSet, i64, i32, %struct.b2Vec2, float, float, float, float, float, float, float, float, ptr, ptr, i16, %struct.b2Profile, ptr, ptr, ptr, ptr, i32, ptr, ptr, ptr, ptr, ptr, float, i32, i32, i16, i8, i8, i8, i8, i8, i8 }
%struct.b2ArenaAllocator = type { ptr, i32, i32, i32, i32, %struct.b2ArenaEntryArray }
%struct.b2ArenaEntryArray = type { ptr, i32, i32 }
%struct.b2BroadPhase = type { [3 x %struct.b2DynamicTree], i32, %struct.b2HashSet, %struct.b2IntArray, ptr, ptr, i32, %struct.b2AtomicInt, %struct.b2HashSet }
%struct.b2DynamicTree = type { ptr, i32, i32, i32, i32, i32, ptr, ptr, ptr, ptr, i32 }
%struct.b2IntArray = type { ptr, i32, i32 }
%struct.b2AtomicInt = type { i32 }
%struct.b2HashSet = type { ptr, i32, i32 }
%struct.b2ConstraintGraph = type { [12 x %struct.b2GraphColor] }
%struct.b2GraphColor = type { %struct.b2BitSet, %struct.b2ContactSimArray, %struct.b2JointSimArray, %union.anon }
%struct.b2ContactSimArray = type { ptr, i32, i32 }
%struct.b2JointSimArray = type { ptr, i32, i32 }
%union.anon = type { ptr }
%struct.b2BodyArray = type { ptr, i32, i32 }
%struct.b2SolverSetArray = type { ptr, i32, i32 }
%struct.b2JointArray = type { ptr, i32, i32 }
%struct.b2ContactArray = type { ptr, i32, i32 }
%struct.b2IslandArray = type { ptr, i32, i32 }
%struct.b2IdPool = type { %struct.b2IntArray, i32 }
%struct.b2SensorArray = type { ptr, i32, i32 }
%struct.b2TaskContextArray = type { ptr, i32, i32 }
%struct.b2SensorTaskContextArray = type { ptr, i32, i32 }
%struct.b2BodyMoveEventArray = type { ptr, i32, i32 }
%struct.b2SensorBeginTouchEventArray = type { ptr, i32, i32 }
%struct.b2ContactBeginTouchEventArray = type { ptr, i32, i32 }
%struct.b2SensorEndTouchEventArray = type { ptr, i32, i32 }
%struct.b2ContactEndTouchEventArray = type { ptr, i32, i32 }
%struct.b2ContactHitEventArray = type { ptr, i32, i32 }
%struct.b2BitSet = type { ptr, i32, i32 }
%struct.b2Profile = type { float, float, float, float, float, float, float, float, float, float, float, float, float, float, float, float, float, float, float, float, float, float }
%struct.b2Body = type { [32 x i8], ptr, i32, i32, i32, i32, i32, i32, i32, i32, i32, i32, i32, i32, float, float, float, float, i32, i32, i32, i16, i8, i8, i8, i8 }
%struct.b2Contact = type { i32, i32, i32, [2 x %struct.b2ContactEdge], i32, i32, i32, i32, i32, i32, i32, i8 }
%struct.b2ContactEdge = type { i32, i32, i32 }
%struct.b2ContactData = type { %struct.b2ShapeId, %struct.b2ShapeId, %struct.b2Manifold }
%struct.b2Manifold = type { %struct.b2Vec2, float, [2 x %struct.b2ManifoldPoint], i32 }
%struct.b2ManifoldPoint = type { %struct.b2Vec2, %struct.b2Vec2, %struct.b2Vec2, float, float, float, float, float, i16, i8 }
%struct.b2ContactSim = type { i32, i32, i32, i32, i32, float, float, float, float, %struct.b2Manifold, float, float, float, float, i32, %struct.b2SimplexCache }
%struct.b2SimplexCache = type { i16, [3 x i8], [3 x i8] }

; Function Attrs: inlinehint nounwind uwtable
define internal ptr @b2ShapeArray_Get(ptr noundef %0, i32 noundef %1) #7 {
  %3 = alloca ptr, align 8
  %4 = alloca i32, align 4
  store ptr %0, ptr %3, align 8, !tbaa !12
  store i32 %1, ptr %4, align 4, !tbaa !3
  %5 = load ptr, ptr %3, align 8, !tbaa !12
  %6 = getelementptr inbounds nuw %struct.b2ShapeArray, ptr %5, i32 0, i32 0
  %7 = load ptr, ptr %6, align 8, !tbaa !14
  %8 = load i32, ptr %4, align 4, !tbaa !3
  %9 = sext i32 %8 to i64
  %10 = getelementptr inbounds %struct.b2Shape, ptr %7, i64 %9
  ret ptr %10
}

; Function Attrs: inlinehint nounwind uwtable
define internal ptr @b2ContactArray_Get(ptr noundef %0, i32 noundef %1) #7 {
  %3 = alloca ptr, align 8
  %4 = alloca i32, align 4
  store ptr %0, ptr %3, align 8, !tbaa !12
  store i32 %1, ptr %4, align 4, !tbaa !3
  %5 = load ptr, ptr %3, align 8, !tbaa !12
  %6 = getelementptr inbounds nuw %struct.b2ContactArray, ptr %5, i32 0, i32 0
  %7 = load ptr, ptr %6, align 8, !tbaa !294
  %8 = load i32, ptr %4, align 4, !tbaa !3
  %9 = sext i32 %8 to i64
  %10 = getelementptr inbounds %struct.b2Contact, ptr %7, i64 %9
  ret ptr %10
}

; Function Attrs: inlinehint nounwind uwtable
define internal ptr @b2BodyArray_Get(ptr noundef %0, i32 noundef %1) #7 {
  %3 = alloca ptr, align 8
  %4 = alloca i32, align 4
  store ptr %0, ptr %3, align 8, !tbaa !12
  store i32 %1, ptr %4, align 4, !tbaa !3
  %5 = load ptr, ptr %3, align 8, !tbaa !12
  %6 = getelementptr inbounds nuw %struct.b2BodyArray, ptr %5, i32 0, i32 0
  %7 = load ptr, ptr %6, align 8, !tbaa !65
  %8 = load i32, ptr %4, align 4, !tbaa !3
  %9 = sext i32 %8 to i64
  %10 = getelementptr inbounds %struct.b2Body, ptr %7, i64 %9
  ret ptr %10
}

; Function Attrs: nounwind uwtable
define internal ptr @b2GetShape(ptr noundef %0, i64 %1) #0 {
  %3 = alloca %struct.b2ShapeId, align 4
  %4 = alloca ptr, align 8
  %5 = alloca i32, align 4
  %6 = alloca ptr, align 8
  store i64 %1, ptr %3, align 4
  store ptr %0, ptr %4, align 8, !tbaa !26
  call void @llvm.lifetime.start.p0(i64 4, ptr %5) #9
  %7 = getelementptr inbounds nuw %struct.b2ShapeId, ptr %3, i32 0, i32 0
  %8 = load i32, ptr %7, align 4, !tbaa !28
  %9 = sub nsw i32 %8, 1
  store i32 %9, ptr %5, align 4, !tbaa !3
  call void @llvm.lifetime.start.p0(i64 8, ptr %6) #9
  %10 = load ptr, ptr %4, align 8, !tbaa !26
  %11 = getelementptr inbounds nuw %struct.b2World, ptr %10, i32 0, i32 15
  %12 = load i32, ptr %5, align 4, !tbaa !3
  %13 = call ptr @b2ShapeArray_Get(ptr noundef %11, i32 noundef %12)
  store ptr %13, ptr %6, align 8, !tbaa !34
  %14 = load ptr, ptr %6, align 8, !tbaa !34
  call void @llvm.lifetime.end.p0(i64 8, ptr %6) #9
  call void @llvm.lifetime.end.p0(i64 4, ptr %5) #9
  ret ptr %14
}

; Function Attrs: nounwind uwtable
define i32 @b2Shape_GetContactData(i64 %0, ptr noundef %1, i32 noundef %2) #0 {
  %4 = alloca i32, align 4
  %5 = alloca %struct.b2ShapeId, align 4
  %6 = alloca ptr, align 8
  %7 = alloca i32, align 4
  %8 = alloca ptr, align 8
  %9 = alloca i32, align 4
  %10 = alloca ptr, align 8
  %11 = alloca ptr, align 8
  %12 = alloca i32, align 4
  %13 = alloca i32, align 4
  %14 = alloca i32, align 4
  %15 = alloca i32, align 4
  %16 = alloca ptr, align 8
  %17 = alloca ptr, align 8
  %18 = alloca ptr, align 8
  %19 = alloca %struct.b2ShapeId, align 4
  %20 = alloca %struct.b2ShapeId, align 4
  %21 = alloca ptr, align 8
  store i64 %0, ptr %5, align 4
  store ptr %1, ptr %6, align 8, !tbaa !286
  store i32 %2, ptr %7, align 4, !tbaa !3
  call void @llvm.lifetime.start.p0(i64 8, ptr %8) #9
  %22 = getelementptr inbounds nuw %struct.b2ShapeId, ptr %5, i32 0, i32 1
  %23 = load i16, ptr %22, align 4, !tbaa !30
  %24 = zext i16 %23 to i32
  %25 = call ptr @b2GetWorldLocked(i32 noundef %24)
  store ptr %25, ptr %8, align 8, !tbaa !26
  %26 = load ptr, ptr %8, align 8, !tbaa !26
  %27 = icmp eq ptr %26, null
  br i1 %27, label %28, label %29

28:                                               ; preds = %3
  store i32 0, ptr %4, align 4
  store i32 1, ptr %9, align 4
  br label %163

29:                                               ; preds = %3
  call void @llvm.lifetime.start.p0(i64 8, ptr %10) #9
  %30 = load ptr, ptr %8, align 8, !tbaa !26
  %31 = load i64, ptr %5, align 4
  %32 = call ptr @b2GetShape(ptr noundef %30, i64 %31)
  store ptr %32, ptr %10, align 8, !tbaa !34
  %33 = load ptr, ptr %10, align 8, !tbaa !34
  %34 = getelementptr inbounds nuw %struct.b2Shape, ptr %33, i32 0, i32 4
  %35 = load i32, ptr %34, align 8, !tbaa !82
  %36 = icmp ne i32 %35, -1
  br i1 %36, label %37, label %38

37:                                               ; preds = %29
  store i32 0, ptr %4, align 4
  store i32 1, ptr %9, align 4
  br label %162

38:                                               ; preds = %29
  call void @llvm.lifetime.start.p0(i64 8, ptr %11) #9
  %39 = load ptr, ptr %8, align 8, !tbaa !26
  %40 = getelementptr inbounds nuw %struct.b2World, ptr %39, i32 0, i32 4
  %41 = load ptr, ptr %10, align 8, !tbaa !34
  %42 = getelementptr inbounds nuw %struct.b2Shape, ptr %41, i32 0, i32 1
  %43 = load i32, ptr %42, align 4, !tbaa !64
  %44 = call ptr @b2BodyArray_Get(ptr noundef %40, i32 noundef %43)
  store ptr %44, ptr %11, align 8, !tbaa !32
  call void @llvm.lifetime.start.p0(i64 4, ptr %12) #9
  %45 = load ptr, ptr %11, align 8, !tbaa !32
  %46 = getelementptr inbounds nuw %struct.b2Body, ptr %45, i32 0, i32 4
  %47 = load i32, ptr %46, align 8, !tbaa !72
  store i32 %47, ptr %12, align 4, !tbaa !3
  call void @llvm.lifetime.start.p0(i64 4, ptr %13) #9
  store i32 0, ptr %13, align 4, !tbaa !3
  br label %48

48:                                               ; preds = %152, %38
  %49 = load i32, ptr %12, align 4, !tbaa !3
  %50 = icmp ne i32 %49, -1
  br i1 %50, label %51, label %55

51:                                               ; preds = %48
  %52 = load i32, ptr %13, align 4, !tbaa !3
  %53 = load i32, ptr %7, align 4, !tbaa !3
  %54 = icmp slt i32 %52, %53
  br label %55

55:                                               ; preds = %51, %48
  %56 = phi i1 [ false, %48 ], [ %54, %51 ]
  br i1 %56, label %57, label %160

57:                                               ; preds = %55
  call void @llvm.lifetime.start.p0(i64 4, ptr %14) #9
  %58 = load i32, ptr %12, align 4, !tbaa !3
  %59 = ashr i32 %58, 1
  store i32 %59, ptr %14, align 4, !tbaa !3
  call void @llvm.lifetime.start.p0(i64 4, ptr %15) #9
  %60 = load i32, ptr %12, align 4, !tbaa !3
  %61 = and i32 %60, 1
  store i32 %61, ptr %15, align 4, !tbaa !3
  call void @llvm.lifetime.start.p0(i64 8, ptr %16) #9
  %62 = load ptr, ptr %8, align 8, !tbaa !26
  %63 = getelementptr inbounds nuw %struct.b2World, ptr %62, i32 0, i32 10
  %64 = load i32, ptr %14, align 4, !tbaa !3
  %65 = call ptr @b2ContactArray_Get(ptr noundef %63, i32 noundef %64)
  store ptr %65, ptr %16, align 8, !tbaa !73
  %66 = load ptr, ptr %16, align 8, !tbaa !73
  %67 = getelementptr inbounds nuw %struct.b2Contact, ptr %66, i32 0, i32 4
  %68 = load i32, ptr %67, align 4, !tbaa !77
  %69 = getelementptr inbounds nuw %struct.b2ShapeId, ptr %5, i32 0, i32 0
  %70 = load i32, ptr %69, align 4, !tbaa !28
  %71 = sub nsw i32 %70, 1
  %72 = icmp eq i32 %68, %71
  br i1 %72, label %81, label %73

73:                                               ; preds = %57
  %74 = load ptr, ptr %16, align 8, !tbaa !73
  %75 = getelementptr inbounds nuw %struct.b2Contact, ptr %74, i32 0, i32 5
  %76 = load i32, ptr %75, align 4, !tbaa !79
  %77 = getelementptr inbounds nuw %struct.b2ShapeId, ptr %5, i32 0, i32 0
  %78 = load i32, ptr %77, align 4, !tbaa !28
  %79 = sub nsw i32 %78, 1
  %80 = icmp eq i32 %76, %79
  br i1 %80, label %81, label %152

81:                                               ; preds = %73, %57
  %82 = load ptr, ptr %16, align 8, !tbaa !73
  %83 = getelementptr inbounds nuw %struct.b2Contact, ptr %82, i32 0, i32 10
  %84 = load i32, ptr %83, align 4, !tbaa !288
  %85 = and i32 %84, 1
  %86 = icmp ne i32 %85, 0
  br i1 %86, label %87, label %152

87:                                               ; preds = %81
  call void @llvm.lifetime.start.p0(i64 8, ptr %17) #9
  %88 = load ptr, ptr %8, align 8, !tbaa !26
  %89 = getelementptr inbounds nuw %struct.b2World, ptr %88, i32 0, i32 15
  %90 = getelementptr inbounds nuw %struct.b2ShapeArray, ptr %89, i32 0, i32 0
  %91 = load ptr, ptr %90, align 8, !tbaa !289
  %92 = load ptr, ptr %16, align 8, !tbaa !73
  %93 = getelementptr inbounds nuw %struct.b2Contact, ptr %92, i32 0, i32 4
  %94 = load i32, ptr %93, align 4, !tbaa !77
  %95 = sext i32 %94 to i64
  %96 = getelementptr inbounds %struct.b2Shape, ptr %91, i64 %95
  store ptr %96, ptr %17, align 8, !tbaa !34
  call void @llvm.lifetime.start.p0(i64 8, ptr %18) #9
  %97 = load ptr, ptr %8, align 8, !tbaa !26
  %98 = getelementptr inbounds nuw %struct.b2World, ptr %97, i32 0, i32 15
  %99 = getelementptr inbounds nuw %struct.b2ShapeArray, ptr %98, i32 0, i32 0
  %100 = load ptr, ptr %99, align 8, !tbaa !289
  %101 = load ptr, ptr %16, align 8, !tbaa !73
  %102 = getelementptr inbounds nuw %struct.b2Contact, ptr %101, i32 0, i32 5
  %103 = load i32, ptr %102, align 4, !tbaa !79
  %104 = sext i32 %103 to i64
  %105 = getelementptr inbounds %struct.b2Shape, ptr %100, i64 %104
  store ptr %105, ptr %18, align 8, !tbaa !34
  %106 = load ptr, ptr %6, align 8, !tbaa !286
  %107 = load i32, ptr %13, align 4, !tbaa !3
  %108 = sext i32 %107 to i64
  %109 = getelementptr inbounds %struct.b2ContactData, ptr %106, i64 %108
  %110 = getelementptr inbounds nuw %struct.b2ContactData, ptr %109, i32 0, i32 0
  %111 = getelementptr inbounds nuw %struct.b2ShapeId, ptr %19, i32 0, i32 0
  %112 = load ptr, ptr %17, align 8, !tbaa !34
  %113 = getelementptr inbounds nuw %struct.b2Shape, ptr %112, i32 0, i32 0
  %114 = load i32, ptr %113, align 8, !tbaa !43
  %115 = add nsw i32 %114, 1
  store i32 %115, ptr %111, align 4, !tbaa !28
  %116 = getelementptr inbounds nuw %struct.b2ShapeId, ptr %19, i32 0, i32 1
  %117 = getelementptr inbounds nuw %struct.b2ShapeId, ptr %5, i32 0, i32 1
  %118 = load i16, ptr %117, align 4, !tbaa !30
  store i16 %118, ptr %116, align 4, !tbaa !30
  %119 = getelementptr inbounds nuw %struct.b2ShapeId, ptr %19, i32 0, i32 2
  %120 = load ptr, ptr %17, align 8, !tbaa !34
  %121 = getelementptr inbounds nuw %struct.b2Shape, ptr %120, i32 0, i32 20
  %122 = load i16, ptr %121, align 4, !tbaa !47
  store i16 %122, ptr %119, align 2, !tbaa !31
  call void @llvm.memcpy.p0.p0.i64(ptr align 4 %110, ptr align 4 %19, i64 8, i1 false), !tbaa.struct !61
  %123 = load ptr, ptr %6, align 8, !tbaa !286
  %124 = load i32, ptr %13, align 4, !tbaa !3
  %125 = sext i32 %124 to i64
  %126 = getelementptr inbounds %struct.b2ContactData, ptr %123, i64 %125
  %127 = getelementptr inbounds nuw %struct.b2ContactData, ptr %126, i32 0, i32 1
  %128 = getelementptr inbounds nuw %struct.b2ShapeId, ptr %20, i32 0, i32 0
  %129 = load ptr, ptr %18, align 8, !tbaa !34
  %130 = getelementptr inbounds nuw %struct.b2Shape, ptr %129, i32 0, i32 0
  %131 = load i32, ptr %130, align 8, !tbaa !43
  %132 = add nsw i32 %131, 1
  store i32 %132, ptr %128, align 4, !tbaa !28
  %133 = getelementptr inbounds nuw %struct.b2ShapeId, ptr %20, i32 0, i32 1
  %134 = getelementptr inbounds nuw %struct.b2ShapeId, ptr %5, i32 0, i32 1
  %135 = load i16, ptr %134, align 4, !tbaa !30
  store i16 %135, ptr %133, align 4, !tbaa !30
  %136 = getelementptr inbounds nuw %struct.b2ShapeId, ptr %20, i32 0, i32 2
  %137 = load ptr, ptr %18, align 8, !tbaa !34
  %138 = getelementptr inbounds nuw %struct.b2Shape, ptr %137, i32 0, i32 20
  %139 = load i16, ptr %138, align 4, !tbaa !47
  store i16 %139, ptr %136, align 2, !tbaa !31
  call void @llvm.memcpy.p0.p0.i64(ptr align 4 %127, ptr align 4 %20, i64 8, i1 false), !tbaa.struct !61
  call void @llvm.lifetime.start.p0(i64 8, ptr %21) #9
  %140 = load ptr, ptr %8, align 8, !tbaa !26
  %141 = load ptr, ptr %16, align 8, !tbaa !73
  %142 = call ptr @b2GetContactSim(ptr noundef %140, ptr noundef %141)
  store ptr %142, ptr %21, align 8, !tbaa !290
  %143 = load ptr, ptr %6, align 8, !tbaa !286
  %144 = load i32, ptr %13, align 4, !tbaa !3
  %145 = sext i32 %144 to i64
  %146 = getelementptr inbounds %struct.b2ContactData, ptr %143, i64 %145
  %147 = getelementptr inbounds nuw %struct.b2ContactData, ptr %146, i32 0, i32 2
  %148 = load ptr, ptr %21, align 8, !tbaa !290
  %149 = getelementptr inbounds nuw %struct.b2ContactSim, ptr %148, i32 0, i32 9
  call void @llvm.memcpy.p0.p0.i64(ptr align 4 %147, ptr align 4 %149, i64 112, i1 false), !tbaa.struct !292
  %150 = load i32, ptr %13, align 4, !tbaa !3
  %151 = add nsw i32 %150, 1
  store i32 %151, ptr %13, align 4, !tbaa !3
  call void @llvm.lifetime.end.p0(i64 8, ptr %21) #9
  call void @llvm.lifetime.end.p0(i64 8, ptr %18) #9
  call void @llvm.lifetime.end.p0(i64 8, ptr %17) #9
  br label %152

152:                                              ; preds = %87, %81, %73
  %153 = load ptr, ptr %16, align 8, !tbaa !73
  %154 = getelementptr inbounds nuw %struct.b2Contact, ptr %153, i32 0, i32 3
  %155 = load i32, ptr %15, align 4, !tbaa !3
  %156 = sext i32 %155 to i64
  %157 = getelementptr inbounds [2 x %struct.b2ContactEdge], ptr %154, i64 0, i64 %156
  %158 = getelementptr inbounds nuw %struct.b2ContactEdge, ptr %157, i32 0, i32 2
  %159 = load i32, ptr %158, align 4, !tbaa !75
  store i32 %159, ptr %12, align 4, !tbaa !3
  call void @llvm.lifetime.end.p0(i64 8, ptr %16) #9
  call void @llvm.lifetime.end.p0(i64 4, ptr %15) #9
  call void @llvm.lifetime.end.p0(i64 4, ptr %14) #9
  br label %48, !llvm.loop !293

160:                                              ; preds = %55
  %161 = load i32, ptr %13, align 4, !tbaa !3
  store i32 %161, ptr %4, align 4
  store i32 1, ptr %9, align 4
  call void @llvm.lifetime.end.p0(i64 4, ptr %13) #9
  call void @llvm.lifetime.end.p0(i64 4, ptr %12) #9
  call void @llvm.lifetime.end.p0(i64 8, ptr %11) #9
  br label %162

162:                                              ; preds = %160, %37
  call void @llvm.lifetime.end.p0(i64 8, ptr %10) #9
  br label %163

163:                                              ; preds = %162, %28
  call void @llvm.lifetime.end.p0(i64 8, ptr %8) #9
  %164 = load i32, ptr %4, align 4
  ret i32 %164
}