; Function Attrs: nounwind uwtable
define i32 @b2Shape_GetContactData(i64 %0, ptr noundef writeonly captures(none) %1, i32 noundef %2) local_unnamed_addr #0 {
  %.sroa.039.0.extract.trunc = trunc i64 %0 to i32
  %.sroa.4.0.extract.shift = lshr i64 %0, 32
  %.sroa.4.0.extract.trunc = trunc i64 %.sroa.4.0.extract.shift to i16
  %4 = trunc nuw i64 %.sroa.4.0.extract.shift to i32
  %5 = and i32 %4, 65535
  %6 = tail call ptr @b2GetWorldLocked(i32 noundef %5) #10
  %7 = icmp eq ptr %6, null
  br i1 %7, label %.loopexit, label %8

8:                                                ; preds = %3
  %9 = getelementptr i8, ptr %6, i64 1256
  %.val = load ptr, ptr %9, align 8, !tbaa !14
  %10 = shl i64 %0, 32
  %sext.i = add i64 %10, -4294967296
  %11 = ashr exact i64 %sext.i, 32
  %12 = getelementptr inbounds %struct.b2Shape, ptr %.val, i64 %11
  %13 = getelementptr inbounds nuw i8, ptr %12, i64 16
  %14 = load i32, ptr %13, align 8, !tbaa !55
  %.not = icmp eq i32 %14, -1
  br i1 %.not, label %15, label %.loopexit

15:                                               ; preds = %8
  %16 = getelementptr inbounds nuw i8, ptr %6, i64 1032
  %17 = getelementptr inbounds nuw i8, ptr %12, i64 4
  %18 = load i32, ptr %17, align 4, !tbaa !34
  %.val51 = load ptr, ptr %16, align 8, !tbaa !35
  %19 = sext i32 %18 to i64
  %20 = getelementptr inbounds %struct.b2Body, ptr %.val51, i64 %19, i32 4
  %.04553 = load i32, ptr %20, align 4, !tbaa !66
  %21 = icmp ne i32 %.04553, -1
  %22 = icmp sgt i32 %2, 0
  %23 = and i1 %21, %22
  br i1 %23, label %.lr.ph, label %.loopexit

.lr.ph:                                           ; preds = %15
  %24 = getelementptr inbounds nuw i8, ptr %6, i64 1152
  %25 = add nsw i32 %.sroa.039.0.extract.trunc, -1
  br label %26

26:                                               ; preds = %.lr.ph, %64
  %.04555 = phi i32 [ %.04553, %.lr.ph ], [ %.045, %64 ]
  %.04654 = phi i32 [ 0, %.lr.ph ], [ %.147, %64 ]
  %27 = ashr i32 %.04555, 1
  %.val52 = load ptr, ptr %24, align 8, !tbaa !45
  %28 = sext i32 %27 to i64
  %29 = getelementptr inbounds %struct.b2Contact, ptr %.val52, i64 %28
  %30 = getelementptr inbounds nuw i8, ptr %29, i64 36
  %31 = load i32, ptr %30, align 4, !tbaa !50
  %32 = icmp eq i32 %31, %25
  br i1 %32, label %37, label %33

33:                                               ; preds = %26
  %34 = getelementptr inbounds nuw i8, ptr %29, i64 40
  %35 = load i32, ptr %34, align 4, !tbaa !52
  %36 = icmp eq i32 %35, %25
  br i1 %36, label %37, label %64

37:                                               ; preds = %33, %26
  %38 = getelementptr inbounds nuw i8, ptr %29, i64 60
  %39 = load i32, ptr %38, align 4, !tbaa !226
  %40 = and i32 %39, 1
  %.not50 = icmp eq i32 %40, 0
  br i1 %.not50, label %64, label %41

41:                                               ; preds = %37
  %42 = load ptr, ptr %9, align 8, !tbaa !227
  %43 = sext i32 %31 to i64
  %44 = getelementptr inbounds %struct.b2Shape, ptr %42, i64 %43
  %45 = getelementptr inbounds nuw i8, ptr %29, i64 40
  %46 = load i32, ptr %45, align 4, !tbaa !52
  %47 = sext i32 %46 to i64
  %48 = getelementptr inbounds %struct.b2Shape, ptr %42, i64 %47
  %49 = sext i32 %.04654 to i64
  %50 = getelementptr inbounds %struct.b2ContactData, ptr %1, i64 %49
  %51 = load i32, ptr %44, align 8, !tbaa !23
  %52 = add nsw i32 %51, 1
  %53 = getelementptr inbounds nuw i8, ptr %44, i64 276
  %54 = load i16, ptr %53, align 4, !tbaa !28
  store i32 %52, ptr %50, align 4, !tbaa !66
  %.sroa.22.0..sroa_idx = getelementptr inbounds nuw i8, ptr %50, i64 4
  store i16 %.sroa.4.0.extract.trunc, ptr %.sroa.22.0..sroa_idx, align 4, !tbaa !195
  %.sroa.33.0..sroa_idx = getelementptr inbounds nuw i8, ptr %50, i64 6
  store i16 %54, ptr %.sroa.33.0..sroa_idx, align 2, !tbaa !195
  %55 = getelementptr inbounds nuw i8, ptr %50, i64 8
  %56 = load i32, ptr %48, align 8, !tbaa !23
  %57 = add nsw i32 %56, 1
  %58 = getelementptr inbounds nuw i8, ptr %48, i64 276
  %59 = load i16, ptr %58, align 4, !tbaa !28
  store i32 %57, ptr %55, align 4, !tbaa !66
  %.sroa.2.0..sroa_idx = getelementptr inbounds nuw i8, ptr %50, i64 12
  store i16 %.sroa.4.0.extract.trunc, ptr %.sroa.2.0..sroa_idx, align 4, !tbaa !195
  %.sroa.3.0..sroa_idx = getelementptr inbounds nuw i8, ptr %50, i64 14
  store i16 %59, ptr %.sroa.3.0..sroa_idx, align 2, !tbaa !195
  %60 = tail call ptr @b2GetContactSim(ptr noundef nonnull %6, ptr noundef nonnull %29) #10
  %61 = getelementptr inbounds nuw i8, ptr %50, i64 16
  %62 = getelementptr inbounds nuw i8, ptr %60, i64 36
  tail call void @llvm.memcpy.p0.p0.i64(ptr noundef nonnull align 4 dereferenceable(112) %61, ptr noundef nonnull align 4 dereferenceable(112) %62, i64 112, i1 false), !tbaa.struct !228
  %63 = add nsw i32 %.04654, 1
  br label %64

64:                                               ; preds = %41, %37, %33
  %.147 = phi i32 [ %63, %41 ], [ %.04654, %37 ], [ %.04654, %33 ]
  %65 = getelementptr inbounds nuw i8, ptr %29, i64 12
  %66 = trunc i32 %.04555 to i1
  %.offs = select i1 %66, i64 20, i64 8
  %67 = getelementptr inbounds nuw i8, ptr %65, i64 %.offs
  %.045 = load i32, ptr %67, align 4, !tbaa !66
  %68 = icmp ne i32 %.045, -1
  %69 = icmp slt i32 %.147, %2
  %70 = select i1 %68, i1 %69, i1 false
  br i1 %70, label %26, label %.loopexit, !llvm.loop !229

.loopexit:                                        ; preds = %64, %15, %8, %3
  %.0 = phi i32 [ 0, %3 ], [ 0, %8 ], [ 0, %15 ], [ %.147, %64 ]
  ret i32 %.0
}